target datalayout = "e-m:e-p270:32:32-p271:32:32-p272:64:64-i64:64-i128:128-f80:128-n8:16:32:64-S128"
target triple = "x86_64-pc-linux-gnu"

%struct.VuDev = type { i32, i32, ptr, ptr, %struct.VuDevInflightInfo, i32, %union.pthread_mutex_t, i32, i64, ptr, i64, i64, i8, i16, ptr, ptr, ptr, ptr, ptr, i32, i8 }
%struct.VuDevInflightInfo = type { i32, ptr, i64 }
%union.pthread_mutex_t = type { %struct.__pthread_mutex_s }
%struct.__pthread_mutex_s = type { i32, i32, i32, i32, i32, i16, i16, %struct.__pthread_internal_list }
%struct.__pthread_internal_list = type { ptr, ptr }
%struct.VhostUserMsg = type <{ i32, i32, i32, %union.anon, [8 x i32], i32, ptr }>
%union.anon = type { %struct.VhostUserMemory, [8 x i8] }
%struct.VhostUserMemory = type { i32, i32, [8 x %struct.VhostUserMemoryRegion] }
%struct.VhostUserMemoryRegion = type { i64, i64, i64, i64 }
%struct.uffdio_api = type { i64, i64, i64 }

@.str.82 = private unnamed_addr constant [30 x i8] c"Userfaultfd not available: %s\00", align 1
@.str.83 = private unnamed_addr constant [22 x i8] c"Failed UFFDIO_API: %s\00", align 1

; Function Attrs: nounwind uwtable
define internal zeroext i1 @vu_set_postcopy_advise(ptr noundef %0, ptr noundef %1) #0 {
  %3 = alloca ptr, align 8
  %4 = alloca ptr, align 8
  %5 = alloca %struct.uffdio_api, align 8
  store ptr %0, ptr %3, align 8
  store ptr %1, ptr %4, align 8
  call void @llvm.lifetime.start.p0(i64 24, ptr %5) #13
  call void @llvm.memset.p0.i64(ptr align 8 %5, i8 0, i64 24, i1 false), !annotation !4
  %6 = call i64 (i64, ...) @syscall(i64 noundef 323, i32 noundef 526336) #13
  %7 = trunc i64 %6 to i32
  %8 = load ptr, ptr %3, align 8
  %9 = getelementptr inbounds nuw %struct.VuDev, ptr %8, i32 0, i32 19
  store i32 %7, ptr %9, align 8
  %10 = load ptr, ptr %4, align 8
  %11 = getelementptr inbounds nuw %struct.VhostUserMsg, ptr %10, i32 0, i32 2
  store i32 0, ptr %11, align 1
  %12 = load ptr, ptr %3, align 8
  %13 = getelementptr inbounds nuw %struct.VuDev, ptr %12, i32 0, i32 19
  %14 = load i32, ptr %13, align 8
  %15 = icmp eq i32 %14, -1
  br i1 %15, label %16, label %21

16:                                               ; preds = %2
  %17 = load ptr, ptr %3, align 8
  %18 = call ptr @__errno_location() #14
  %19 = load i32, ptr %18, align 4
  %20 = call ptr @strerror(i32 noundef %19) #13
  call void (ptr, ptr, ...) @vu_panic(ptr noundef %17, ptr noundef @.str.82, ptr noundef %20)
  br label %41

21:                                               ; preds = %2
  %22 = getelementptr inbounds nuw %struct.uffdio_api, ptr %5, i32 0, i32 0
  store i64 170, ptr %22, align 8
  %23 = getelementptr inbounds nuw %struct.uffdio_api, ptr %5, i32 0, i32 1
  store i64 0, ptr %23, align 8
  %24 = load ptr, ptr %3, align 8
  %25 = getelementptr inbounds nuw %struct.VuDev, ptr %24, i32 0, i32 19
  %26 = load i32, ptr %25, align 8
  %27 = call i32 (i32, i64, ...) @ioctl(i32 noundef %26, i64 noundef 3222841919, ptr noundef %5) #13
  %28 = icmp ne i32 %27, 0
  br i1 %28, label %29, label %40

29:                                               ; preds = %21
  %30 = load ptr, ptr %3, align 8
  %31 = call ptr @__errno_location() #14
  %32 = load i32, ptr %31, align 4
  %33 = call ptr @strerror(i32 noundef %32) #13
  call void (ptr, ptr, ...) @vu_panic(ptr noundef %30, ptr noundef @.str.83, ptr noundef %33)
  %34 = load ptr, ptr %3, align 8
  %35 = getelementptr inbounds nuw %struct.VuDev, ptr %34, i32 0, i32 19
  %36 = load i32, ptr %35, align 8
  %37 = call i32 @close(i32 noundef %36)
  %38 = load ptr, ptr %3, align 8
  %39 = getelementptr inbounds nuw %struct.VuDev, ptr %38, i32 0, i32 19
  store i32 -1, ptr %39, align 8
  br label %41

40:                                               ; preds = %21
  br label %41

41:                                               ; preds = %40, %29, %16
  %42 = load ptr, ptr %4, align 8
  %43 = getelementptr inbounds nuw %struct.VhostUserMsg, ptr %42, i32 0, i32 5
  store i32 1, ptr %43, align 1
  %44 = load ptr, ptr %3, align 8
  %45 = getelementptr inbounds nuw %struct.VuDev, ptr %44, i32 0, i32 19
  %46 = load i32, ptr %45, align 8
  %47 = load ptr, ptr %4, align 8
  %48 = getelementptr inbounds nuw %struct.VhostUserMsg, ptr %47, i32 0, i32 4
  %49 = getelementptr inbounds [8 x i32], ptr %48, i64 0, i64 0
  store i32 %46, ptr %49, align 1
  call void @llvm.lifetime.end.p0(i64 24, ptr %5) #13
  ret i1 true
}