; Function Attrs: nounwind uwtable
define internal fastcc void @vu_set_postcopy_advise(ptr noundef initializes((184, 188)) %0, ptr noundef nonnull writeonly captures(none) initializes((8, 12), (284, 288), (316, 320)) %1) unnamed_addr #3 {
  %3 = alloca %struct.uffdio_api, align 8
  call void @llvm.lifetime.start.p0(i64 24, ptr nonnull %3) #21
  %4 = getelementptr inbounds nuw i8, ptr %3, i64 16
  store i64 0, ptr %4, align 8, !annotation !4
  %5 = tail call i64 (i64, ...) @syscall(i64 noundef 323, i32 noundef 526336) #21
  %6 = trunc i64 %5 to i32
  %7 = getelementptr inbounds nuw i8, ptr %0, i64 184
  store i32 %6, ptr %7, align 8
  %8 = getelementptr inbounds nuw i8, ptr %1, i64 8
  store i32 0, ptr %8, align 1
  %9 = load i32, ptr %7, align 8
  %10 = icmp eq i32 %9, -1
  br i1 %10, label %11, label %15

11:                                               ; preds = %2
  %12 = tail call ptr @__errno_location() #22
  %13 = load i32, ptr %12, align 4
  %14 = tail call ptr @strerror(i32 noundef %13) #21
  tail call void (ptr, ptr, ...) @vu_panic(ptr noundef nonnull %0, ptr noundef nonnull @.str.82, ptr noundef %14)
  br label %24

15:                                               ; preds = %2
  store i64 170, ptr %3, align 8
  %16 = getelementptr inbounds nuw i8, ptr %3, i64 8
  store i64 0, ptr %16, align 8
  %17 = call i32 (i32, i64, ...) @ioctl(i32 noundef %9, i64 noundef 3222841919, ptr noundef nonnull %3) #21
  %.not = icmp eq i32 %17, 0
  br i1 %.not, label %24, label %18

18:                                               ; preds = %15
  %19 = tail call ptr @__errno_location() #22
  %20 = load i32, ptr %19, align 4
  %21 = call ptr @strerror(i32 noundef %20) #21
  call void (ptr, ptr, ...) @vu_panic(ptr noundef nonnull %0, ptr noundef nonnull @.str.83, ptr noundef %21)
  %22 = load i32, ptr %7, align 8
  %23 = call i32 @close(i32 noundef %22) #21
  store i32 -1, ptr %7, align 8
  br label %24

24:                                               ; preds = %15, %18, %11
  %25 = getelementptr inbounds nuw i8, ptr %1, i64 316
  store i32 1, ptr %25, align 1
  %26 = load i32, ptr %7, align 8
  %27 = getelementptr inbounds nuw i8, ptr %1, i64 284
  store i32 %26, ptr %27, align 1
  call void @llvm.lifetime.end.p0(i64 24, ptr nonnull %3) #21
  ret void
}